target datalayout = "e-m:e-p270:32:32-p271:32:32-p272:64:64-i64:64-i128:128-f80:128-n8:16:32:64-S128"
target triple = "x86_64-pc-linux-gnu"

%struct.expert_field = type { i32, i32 }
%struct._packet_info = type { ptr, ptr, i32, i32, %struct.nstime_t, %struct.nstime_t, %struct.nstime_t, i8, ptr, ptr, ptr, ptr, %struct._address, %struct._address, %struct._address, %struct._address, %struct._address, %struct._address, i32, ptr, i8, [3 x i8], %struct.anon, i32, i32, i32, i32, ptr, i8, ptr, ptr, i16, i16, i32, i32, i16, i32, i32, ptr, ptr, ptr, i8, i8, i16, i16, i16, i32, i16, i16, ptr, ptr, ptr, ptr, ptr, i32, i32 }
%struct.nstime_t = type { i64, i32 }
%struct._address = type { i32, i32, ptr, ptr }
%struct.anon = type { i8, [3 x i8] }

@hf_ldp_tlv_pv_lsrid = internal global i32 0, align 4
@ett_ldp_tlv_val = internal global i32 0, align 4
@ei_ldp_tlv_fec_len = internal global %struct.expert_field zeroinitializer, align 4
@.str.1034 = private unnamed_addr constant [8 x i8] c"LSR IDs\00", align 1
@.str.1035 = private unnamed_addr constant [14 x i8] c"LSR Id %u: %s\00", align 1
@.str.1036 = private unnamed_addr constant [55 x i8] c"Error processing TLV: Extra data at end of path vector\00", align 1

; Function Attrs: null_pointer_is_valid sspstrong uwtable
define internal void @dissect_tlv_path_vector(ptr noundef %0, ptr noundef %1, i32 noundef %2, ptr noundef %3, i32 noundef %4) #0 {
  %6 = alloca ptr, align 8
  %7 = alloca ptr, align 8
  %8 = alloca i32, align 4
  %9 = alloca ptr, align 8
  %10 = alloca i32, align 4
  %11 = alloca ptr, align 8
  %12 = alloca i8, align 1
  %13 = alloca i32, align 4
  store ptr %0, ptr %6, align 8
  store ptr %1, ptr %7, align 8
  store i32 %2, ptr %8, align 4
  store ptr %3, ptr %9, align 8
  store i32 %4, ptr %10, align 4
  call void @llvm.lifetime.start.p0(i64 8, ptr %11) #7
  call void @llvm.lifetime.start.p0(i64 1, ptr %12) #7
  call void @llvm.lifetime.start.p0(i64 4, ptr %13) #7
  %14 = load ptr, ptr %9, align 8
  %15 = load ptr, ptr %6, align 8
  %16 = load i32, ptr %8, align 4
  %17 = load i32, ptr %10, align 4
  %18 = load i32, ptr @ett_ldp_tlv_val, align 4
  %19 = call ptr @proto_tree_add_subtree(ptr noundef %14, ptr noundef %15, i32 noundef %16, i32 noundef %17, i32 noundef %18, ptr noundef null, ptr noundef @.str.1034)
  store ptr %19, ptr %11, align 8
  store i8 1, ptr %12, align 1
  br label %20

20:                                               ; preds = %41, %5
  %21 = load i32, ptr %10, align 4
  %22 = icmp sge i32 %21, 4
  br i1 %22, label %23, label %48

23:                                               ; preds = %20
  %24 = load ptr, ptr %6, align 8
  %25 = load i32, ptr %8, align 4
  %26 = call i32 @tvb_get_ipv4(ptr noundef %24, i32 noundef %25)
  store i32 %26, ptr %13, align 4
  %27 = load ptr, ptr %11, align 8
  %28 = load i32, ptr @hf_ldp_tlv_pv_lsrid, align 4
  %29 = load ptr, ptr %6, align 8
  %30 = load i32, ptr %8, align 4
  %31 = load i32, ptr %13, align 4
  %32 = load i8, ptr %12, align 1
  %33 = zext i8 %32 to i32
  %34 = load ptr, ptr %7, align 8
  %35 = getelementptr inbounds nuw %struct._packet_info, ptr %34, i32 0, i32 51
  %36 = load ptr, ptr %35, align 8
  %37 = load ptr, ptr %6, align 8
  %38 = load i32, ptr %8, align 4
  %39 = call ptr @tvb_address_to_str(ptr noundef %36, ptr noundef %37, i32 noundef 2, i32 noundef %38)
  %40 = call ptr (ptr, i32, ptr, i32, i32, i32, ptr, ...) @proto_tree_add_ipv4_format(ptr noundef %27, i32 noundef %28, ptr noundef %29, i32 noundef %30, i32 noundef 4, i32 noundef %31, ptr noundef @.str.1035, i32 noundef %33, ptr noundef %39)
  br label %41

41:                                               ; preds = %23
  %42 = load i8, ptr %12, align 1
  %43 = add i8 %42, 1
  store i8 %43, ptr %12, align 1
  %44 = load i32, ptr %8, align 4
  %45 = add i32 %44, 4
  store i32 %45, ptr %8, align 4
  %46 = load i32, ptr %10, align 4
  %47 = sub i32 %46, 4
  store i32 %47, ptr %10, align 4
  br label %20, !llvm.loop !19

48:                                               ; preds = %20
  %49 = load i32, ptr %10, align 4
  %50 = icmp ne i32 %49, 0
  br i1 %50, label %51, label %58

51:                                               ; preds = %48
  %52 = load ptr, ptr %9, align 8
  %53 = load ptr, ptr %7, align 8
  %54 = load ptr, ptr %6, align 8
  %55 = load i32, ptr %8, align 4
  %56 = load i32, ptr %10, align 4
  %57 = call ptr (ptr, ptr, ptr, ptr, i32, i32, ptr, ...) @proto_tree_add_expert_format(ptr noundef %52, ptr noundef %53, ptr noundef @ei_ldp_tlv_fec_len, ptr noundef %54, i32 noundef %55, i32 noundef %56, ptr noundef @.str.1036)
  br label %58

58:                                               ; preds = %51, %48
  call void @llvm.lifetime.end.p0(i64 4, ptr %13) #7
  call void @llvm.lifetime.end.p0(i64 1, ptr %12) #7
  call void @llvm.lifetime.end.p0(i64 8, ptr %11) #7
  ret void
}