; Function Attrs: null_pointer_is_valid sspstrong uwtable
define internal fastcc void @dissect_tlv_path_vector(ptr noundef %0, ptr noundef %1, i32 noundef %2, ptr noundef %3, i32 noundef range(i32 0, 2147483644) %4) unnamed_addr #0 {
  %6 = load i32, ptr @ett_ldp_tlv_val, align 4
  %7 = tail call ptr @proto_tree_add_subtree(ptr noundef %3, ptr noundef %0, i32 noundef %2, i32 noundef %4, i32 noundef %6, ptr noundef null, ptr noundef nonnull @.str.1034)
  %8 = icmp samesign ugt i32 %4, 3
  br i1 %8, label %.lr.ph, label %._crit_edge

.lr.ph:                                           ; preds = %5
  %9 = getelementptr inbounds nuw i8, ptr %1, i64 408
  br label %10

10:                                               ; preds = %.lr.ph, %10
  %.027 = phi i32 [ %2, %.lr.ph ], [ %18, %10 ]
  %.02326 = phi i8 [ 1, %.lr.ph ], [ %17, %10 ]
  %.02425 = phi i32 [ %4, %.lr.ph ], [ %19, %10 ]
  %11 = tail call i32 @tvb_get_ipv4(ptr noundef %0, i32 noundef %.027)
  %12 = load i32, ptr @hf_ldp_tlv_pv_lsrid, align 4
  %13 = zext i8 %.02326 to i32
  %14 = load ptr, ptr %9, align 8
  %15 = tail call ptr @tvb_address_to_str(ptr noundef %14, ptr noundef %0, i32 noundef 2, i32 noundef %.027)
  %16 = tail call ptr (ptr, i32, ptr, i32, i32, i32, ptr, ...) @proto_tree_add_ipv4_format(ptr noundef %7, i32 noundef %12, ptr noundef %0, i32 noundef %.027, i32 noundef 4, i32 noundef %11, ptr noundef nonnull @.str.1035, i32 noundef %13, ptr noundef %15)
  %17 = add i8 %.02326, 1
  %18 = add i32 %.027, 4
  %19 = add nsw i32 %.02425, -4
  %20 = icmp samesign ugt i32 %19, 3
  br i1 %20, label %10, label %._crit_edge, !llvm.loop !18

._crit_edge:                                      ; preds = %10, %5
  %.024.lcssa = phi i32 [ %4, %5 ], [ %19, %10 ]
  %.0.lcssa = phi i32 [ %2, %5 ], [ %18, %10 ]
  %.not = icmp eq i32 %.024.lcssa, 0
  br i1 %.not, label %23, label %21

21:                                               ; preds = %._crit_edge
  %22 = tail call ptr (ptr, ptr, ptr, ptr, i32, i32, ptr, ...) @proto_tree_add_expert_format(ptr noundef %3, ptr noundef %1, ptr noundef nonnull @ei_ldp_tlv_fec_len, ptr noundef %0, i32 noundef %.0.lcssa, i32 noundef %.024.lcssa, ptr noundef nonnull @.str.1036)
  br label %23

23:                                               ; preds = %21, %._crit_edge
  ret void
}